libQt6HttpServer.so.6:NonQt
libQt6HttpServer.so.6:Qt_6
libQt6HttpServer.so.6:Qt_6_PRIVATE_API
libQt6HttpServer.so.6:_Z60qRegisterNormalizedMetaType_QHttpServerResponder__StatusCodeRK10QByteArray
libQt6HttpServer.so.6:_ZN11QHttpServer11qt_metacallEN11QMetaObject4CallEiPPv
libQt6HttpServer.so.6:_ZN11QHttpServer11qt_metacastEPKc
libQt6HttpServer.so.6:_ZN11QHttpServer12sendResponseEO19QHttpServerResponseRK18QHttpServerRequestO20QHttpServerResponder
libQt6HttpServer.so.6:_ZN11QHttpServer12sendResponseEO7QFutureI19QHttpServerResponseERK18QHttpServerRequestO20QHttpServerResponder
libQt6HttpServer.so.6:_ZN11QHttpServer13handleRequestERK18QHttpServerRequestR20QHttpServerResponder
libQt6HttpServer.so.6:_ZN11QHttpServer14missingHandlerERK18QHttpServerRequestO20QHttpServerResponder
libQt6HttpServer.so.6:_ZN11QHttpServer16afterRequestImplESt8functionIF19QHttpServerResponseOS1_RK18QHttpServerRequestEE
libQt6HttpServer.so.6:_ZN11QHttpServer17setMissingHandlerESt8functionIFvRK18QHttpServerRequestO20QHttpServerResponderEE
libQt6HttpServer.so.6:_ZN11QHttpServer6routerEv
libQt6HttpServer.so.6:_ZN11QHttpServerC1EP7QObject
libQt6HttpServer.so.6:_ZN11QHttpServerC2EP7QObject
libQt6HttpServer.so.6:_ZN11QHttpServerD0Ev
libQt6HttpServer.so.6:_ZN11QHttpServerD1Ev
libQt6HttpServer.so.6:_ZN11QHttpServerD2Ev
libQt6HttpServer.so.6:_ZN17QHttpServerRouter11addRuleImplESt10unique_ptrI21QHttpServerRouterRuleSt14default_deleteIS1_EESt16initializer_listI9QMetaTypeE
libQt6HttpServer.so.6:_ZN17QHttpServerRouter12addConverterE9QMetaType14QAnyStringView
libQt6HttpServer.so.6:_ZN17QHttpServerRouter15clearConvertersEv
libQt6HttpServer.so.6:_ZN17QHttpServerRouter15removeConverterE9QMetaType
libQt6HttpServer.so.6:_ZN17QHttpServerRouterC1Ev
libQt6HttpServer.so.6:_ZN17QHttpServerRouterC2Ev
libQt6HttpServer.so.6:_ZN17QHttpServerRouterD1Ev
libQt6HttpServer.so.6:_ZN17QHttpServerRouterD2Ev
libQt6HttpServer.so.6:_ZN18QHttpServerRequestC1ERK12QHostAddresstS2_t
libQt6HttpServer.so.6:_ZN18QHttpServerRequestC1ERK12QHostAddresstS2_tRK17QSslConfiguration
libQt6HttpServer.so.6:_ZN18QHttpServerRequestC2ERK12QHostAddresstS2_t
libQt6HttpServer.so.6:_ZN18QHttpServerRequestC2ERK12QHostAddresstS2_tRK17QSslConfiguration
libQt6HttpServer.so.6:_ZN18QHttpServerRequestD1Ev
libQt6HttpServer.so.6:_ZN18QHttpServerRequestD2Ev
libQt6HttpServer.so.6:_ZN19QAbstractHttpServer11qt_metacallEN11QMetaObject4CallEiPPv
libQt6HttpServer.so.6:_ZN19QAbstractHttpServer11qt_metacastEPKc
libQt6HttpServer.so.6:_ZN19QAbstractHttpServer11serverPortsEv
libQt6HttpServer.so.6:_ZN19QAbstractHttpServer4bindEP10QTcpServer
libQt6HttpServer.so.6:_ZN19QAbstractHttpServer4bindEP12QLocalServer
libQt6HttpServer.so.6:_ZN19QAbstractHttpServer6listenERK12QHostAddresst
libQt6HttpServer.so.6:_ZN19QAbstractHttpServer8sslSetupERK15QSslCertificateRK7QSslKeyN4QSsl11SslProtocolE
libQt6HttpServer.so.6:_ZN19QAbstractHttpServer8sslSetupERK17QSslConfiguration
libQt6HttpServer.so.6:_ZN19QAbstractHttpServerC1EP7QObject
libQt6HttpServer.so.6:_ZN19QAbstractHttpServerC1ER26QAbstractHttpServerPrivateP7QObject
libQt6HttpServer.so.6:_ZN19QAbstractHttpServerC2EP7QObject
libQt6HttpServer.so.6:_ZN19QAbstractHttpServerC2ER26QAbstractHttpServerPrivateP7QObject
libQt6HttpServer.so.6:_ZN19QAbstractHttpServerD0Ev
libQt6HttpServer.so.6:_ZN19QAbstractHttpServerD1Ev
libQt6HttpServer.so.6:_ZN19QAbstractHttpServerD2Ev
libQt6HttpServer.so.6:_ZN19QHttpServerResponse10addHeadersESt16initializer_listISt4pairI10QByteArrayS2_EE
libQt6HttpServer.so.6:_ZN19QHttpServerResponse10setHeadersESt16initializer_listISt4pairI10QByteArrayS2_EE
libQt6HttpServer.so.6:_ZN19QHttpServerResponse11clearHeaderERK10QByteArray
libQt6HttpServer.so.6:_ZN19QHttpServerResponse12clearHeadersEv
libQt6HttpServer.so.6:_ZN19QHttpServerResponse8fromFileERK7QString
libQt6HttpServer.so.6:_ZN19QHttpServerResponse9addHeaderEO10QByteArrayRKS0_
libQt6HttpServer.so.6:_ZN19QHttpServerResponse9addHeaderEO10QByteArrayS1_
libQt6HttpServer.so.6:_ZN19QHttpServerResponse9addHeaderERK10QByteArrayOS0_
libQt6HttpServer.so.6:_ZN19QHttpServerResponse9addHeaderERK10QByteArrayS2_
libQt6HttpServer.so.6:_ZN19QHttpServerResponse9setHeaderEO10QByteArrayRKS0_
libQt6HttpServer.so.6:_ZN19QHttpServerResponse9setHeaderEO10QByteArrayS1_
libQt6HttpServer.so.6:_ZN19QHttpServerResponse9setHeaderERK10QByteArrayOS0_
libQt6HttpServer.so.6:_ZN19QHttpServerResponse9setHeaderERK10QByteArrayS2_
libQt6HttpServer.so.6:_ZN19QHttpServerResponseC1EN20QHttpServerResponder10StatusCodeE
libQt6HttpServer.so.6:_ZN19QHttpServerResponseC1EO10QByteArrayN20QHttpServerResponder10StatusCodeE
libQt6HttpServer.so.6:_ZN19QHttpServerResponseC1EO10QByteArrayRKS0_N20QHttpServerResponder10StatusCodeE
libQt6HttpServer.so.6:_ZN19QHttpServerResponseC1EO10QByteArrayS1_N20QHttpServerResponder10StatusCodeE
libQt6HttpServer.so.6:_ZN19QHttpServerResponseC1EOS_
libQt6HttpServer.so.6:_ZN19QHttpServerResponseC1EPKcN20QHttpServerResponder10StatusCodeE
libQt6HttpServer.so.6:_ZN19QHttpServerResponseC1ERK10QByteArrayN20QHttpServerResponder10StatusCodeE
libQt6HttpServer.so.6:_ZN19QHttpServerResponseC1ERK10QByteArrayOS0_N20QHttpServerResponder10StatusCodeE
libQt6HttpServer.so.6:_ZN19QHttpServerResponseC1ERK10QByteArrayS2_N20QHttpServerResponder10StatusCodeE
libQt6HttpServer.so.6:_ZN19QHttpServerResponseC1ERK10QJsonArrayN20QHttpServerResponder10StatusCodeE
libQt6HttpServer.so.6:_ZN19QHttpServerResponseC1ERK11QJsonObjectN20QHttpServerResponder10StatusCodeE
libQt6HttpServer.so.6:_ZN19QHttpServerResponseC1ERK7QStringN20QHttpServerResponder10StatusCodeE
libQt6HttpServer.so.6:_ZN19QHttpServerResponseC2EN20QHttpServerResponder10StatusCodeE
libQt6HttpServer.so.6:_ZN19QHttpServerResponseC2EO10QByteArrayN20QHttpServerResponder10StatusCodeE
libQt6HttpServer.so.6:_ZN19QHttpServerResponseC2EO10QByteArrayRKS0_N20QHttpServerResponder10StatusCodeE
libQt6HttpServer.so.6:_ZN19QHttpServerResponseC2EO10QByteArrayS1_N20QHttpServerResponder10StatusCodeE
libQt6HttpServer.so.6:_ZN19QHttpServerResponseC2EOS_
libQt6HttpServer.so.6:_ZN19QHttpServerResponseC2EPKcN20QHttpServerResponder10StatusCodeE
libQt6HttpServer.so.6:_ZN19QHttpServerResponseC2ERK10QByteArrayN20QHttpServerResponder10StatusCodeE
libQt6HttpServer.so.6:_ZN19QHttpServerResponseC2ERK10QByteArrayOS0_N20QHttpServerResponder10StatusCodeE
libQt6HttpServer.so.6:_ZN19QHttpServerResponseC2ERK10QByteArrayS2_N20QHttpServerResponder10StatusCodeE
libQt6HttpServer.so.6:_ZN19QHttpServerResponseC2ERK10QJsonArrayN20QHttpServerResponder10StatusCodeE
libQt6HttpServer.so.6:_ZN19QHttpServerResponseC2ERK11QJsonObjectN20QHttpServerResponder10StatusCodeE
libQt6HttpServer.so.6:_ZN19QHttpServerResponseC2ERK7QStringN20QHttpServerResponder10StatusCodeE
libQt6HttpServer.so.6:_ZN19QHttpServerResponseD1Ev
libQt6HttpServer.so.6:_ZN19QHttpServerResponseD2Ev
libQt6HttpServer.so.6:_ZN19QHttpServerResponseaSEOS_
libQt6HttpServer.so.6:_ZN20QHttpServerResponder11writeHeaderERK10QByteArrayS2_
libQt6HttpServer.so.6:_ZN20QHttpServerResponder12sendResponseERK19QHttpServerResponse
libQt6HttpServer.so.6:_ZN20QHttpServerResponder12writeHeadersESt16initializer_listISt4pairI10QByteArrayS2_EE
libQt6HttpServer.so.6:_ZN20QHttpServerResponder15writeStatusLineENS_10StatusCodeE
libQt6HttpServer.so.6:_ZN20QHttpServerResponder5writeENS_10StatusCodeE
libQt6HttpServer.so.6:_ZN20QHttpServerResponder5writeEP9QIODeviceRK10QByteArrayNS_10StatusCodeE
libQt6HttpServer.so.6:_ZN20QHttpServerResponder5writeEP9QIODeviceSt16initializer_listISt4pairI10QByteArrayS4_EENS_10StatusCodeE
libQt6HttpServer.so.6:_ZN20QHttpServerResponder5writeERK10QByteArrayS2_NS_10StatusCodeE
libQt6HttpServer.so.6:_ZN20QHttpServerResponder5writeERK10QByteArraySt16initializer_listISt4pairIS0_S0_EENS_10StatusCodeE
libQt6HttpServer.so.6:_ZN20QHttpServerResponder5writeERK13QJsonDocumentNS_10StatusCodeE
libQt6HttpServer.so.6:_ZN20QHttpServerResponder5writeERK13QJsonDocumentSt16initializer_listISt4pairI10QByteArrayS5_EENS_10StatusCodeE
libQt6HttpServer.so.6:_ZN20QHttpServerResponder5writeESt16initializer_listISt4pairI10QByteArrayS2_EENS_10StatusCodeE
libQt6HttpServer.so.6:_ZN20QHttpServerResponder9writeBodyEPKc
libQt6HttpServer.so.6:_ZN20QHttpServerResponder9writeBodyEPKcx
libQt6HttpServer.so.6:_ZN20QHttpServerResponder9writeBodyERK10QByteArray
libQt6HttpServer.so.6:_ZN20QHttpServerResponderC1EOS_
libQt6HttpServer.so.6:_ZN20QHttpServerResponderC1EP17QHttpServerStream
libQt6HttpServer.so.6:_ZN20QHttpServerResponderC2EOS_
libQt6HttpServer.so.6:_ZN20QHttpServerResponderC2EP17QHttpServerStream
libQt6HttpServer.so.6:_ZN20QHttpServerResponderD1Ev
libQt6HttpServer.so.6:_ZN20QHttpServerResponderD2Ev
libQt6HttpServer.so.6:_ZN21QHttpServerRouterRule16createPathRegexpESt16initializer_listI9QMetaTypeERK5QHashIS1_7QStringE
libQt6HttpServer.so.6:_ZN21QHttpServerRouterRuleC1EP28QHttpServerRouterRulePrivate
libQt6HttpServer.so.6:_ZN21QHttpServerRouterRuleC1ERK7QString6QFlagsIN18QHttpServerRequest6MethodEESt8functionIFvRK23QRegularExpressionMatchRKS4_O20QHttpServerResponderEE
libQt6HttpServer.so.6:_ZN21QHttpServerRouterRuleC1ERK7QStringSt8functionIFvRK23QRegularExpressionMatchRK18QHttpServerRequestO20QHttpServerResponderEE
libQt6HttpServer.so.6:_ZN21QHttpServerRouterRuleC2EP28QHttpServerRouterRulePrivate
libQt6HttpServer.so.6:_ZN21QHttpServerRouterRuleC2ERK7QString6QFlagsIN18QHttpServerRequest6MethodEESt8functionIFvRK23QRegularExpressionMatchRKS4_O20QHttpServerResponderEE
libQt6HttpServer.so.6:_ZN21QHttpServerRouterRuleC2ERK7QStringSt8functionIFvRK23QRegularExpressionMatchRK18QHttpServerRequestO20QHttpServerResponderEE
libQt6HttpServer.so.6:_ZN21QHttpServerRouterRuleD0Ev
libQt6HttpServer.so.6:_ZN21QHttpServerRouterRuleD1Ev
libQt6HttpServer.so.6:_ZN21QHttpServerRouterRuleD2Ev
libQt6HttpServer.so.6:_ZNK11QHttpServer10metaObjectEv
libQt6HttpServer.so.6:_ZNK17QHttpServerRouter10convertersEv
libQt6HttpServer.so.6:_ZNK17QHttpServerRouter13handleRequestERK18QHttpServerRequestR20QHttpServerResponder
libQt6HttpServer.so.6:_ZNK18QHttpServerRequest10remotePortEv
libQt6HttpServer.so.6:_ZNK18QHttpServerRequest12localAddressEv
libQt6HttpServer.so.6:_ZNK18QHttpServerRequest13remoteAddressEv
libQt6HttpServer.so.6:_ZNK18QHttpServerRequest16sslConfigurationEv
libQt6HttpServer.so.6:_ZNK18QHttpServerRequest3urlEv
libQt6HttpServer.so.6:_ZNK18QHttpServerRequest4bodyEv
libQt6HttpServer.so.6:_ZNK18QHttpServerRequest5queryEv
libQt6HttpServer.so.6:_ZNK18QHttpServerRequest5valueERK10QByteArray
libQt6HttpServer.so.6:_ZNK18QHttpServerRequest6methodEv
libQt6HttpServer.so.6:_ZNK18QHttpServerRequest7headersEv
libQt6HttpServer.so.6:_ZNK18QHttpServerRequest9localPortEv
libQt6HttpServer.so.6:_ZNK19QAbstractHttpServer10metaObjectEv
libQt6HttpServer.so.6:_ZNK19QAbstractHttpServer12localServersEv
libQt6HttpServer.so.6:_ZNK19QAbstractHttpServer7serversEv
libQt6HttpServer.so.6:_ZNK19QHttpServerResponse10statusCodeEv
libQt6HttpServer.so.6:_ZNK19QHttpServerResponse4dataEv
libQt6HttpServer.so.6:_ZNK19QHttpServerResponse7headersERK10QByteArray
libQt6HttpServer.so.6:_ZNK19QHttpServerResponse8mimeTypeEv
libQt6HttpServer.so.6:_ZNK19QHttpServerResponse9hasHeaderERK10QByteArray
libQt6HttpServer.so.6:_ZNK19QHttpServerResponse9hasHeaderERK10QByteArrayS2_
libQt6HttpServer.so.6:_ZNK21QHttpServerRouterRule15hasValidMethodsEv
libQt6HttpServer.so.6:_ZNK21QHttpServerRouterRule4execERK18QHttpServerRequestR20QHttpServerResponder
libQt6HttpServer.so.6:_ZNK21QHttpServerRouterRule7matchesERK18QHttpServerRequestP23QRegularExpressionMatch
libQt6HttpServer.so.6:_Zls6QDebugRK18QHttpServerRequest
